target datalayout = "e-m:e-p270:32:32-p271:32:32-p272:64:64-i64:64-i128:128-f80:128-n8:16:32:64-S128"
target triple = "x86_64-pc-linux-gnu"

%struct.UString = type { ptr, i32, i32 }

; Function Attrs: nounwind uwtable
define internal void @ustr_resize(ptr noundef %0, i32 noundef %1, ptr noundef %2) #0 {
  %4 = alloca ptr, align 8
  %5 = alloca i32, align 4
  %6 = alloca ptr, align 8
  store ptr %0, ptr %4, align 8, !tbaa !4
  store i32 %1, ptr %5, align 4, !tbaa !17
  store ptr %2, ptr %6, align 8, !tbaa !18
  %7 = load ptr, ptr %6, align 8, !tbaa !18
  %8 = load i32, ptr %7, align 4, !tbaa !17
  %9 = icmp sgt i32 %8, 0
  br i1 %9, label %10, label %11

10:                                               ; preds = %3
  br label %36

11:                                               ; preds = %3
  %12 = load ptr, ptr %4, align 8, !tbaa !4
  %13 = getelementptr inbounds nuw %struct.UString, ptr %12, i32 0, i32 0
  %14 = load ptr, ptr %13, align 8, !tbaa !9
  %15 = load i32, ptr %5, align 4, !tbaa !17
  %16 = add nsw i32 %15, 1
  %17 = sext i32 %16 to i64
  %18 = mul i64 2, %17
  %19 = call ptr @uprv_realloc_77(ptr noundef %14, i64 noundef %18) #8
  %20 = load ptr, ptr %4, align 8, !tbaa !4
  %21 = getelementptr inbounds nuw %struct.UString, ptr %20, i32 0, i32 0
  store ptr %19, ptr %21, align 8, !tbaa !9
  %22 = load ptr, ptr %4, align 8, !tbaa !4
  %23 = getelementptr inbounds nuw %struct.UString, ptr %22, i32 0, i32 0
  %24 = load ptr, ptr %23, align 8, !tbaa !9
  %25 = icmp eq ptr %24, null
  br i1 %25, label %26, label %32

26:                                               ; preds = %11
  %27 = load ptr, ptr %6, align 8, !tbaa !18
  store i32 7, ptr %27, align 4, !tbaa !17
  %28 = load ptr, ptr %4, align 8, !tbaa !4
  %29 = getelementptr inbounds nuw %struct.UString, ptr %28, i32 0, i32 2
  store i32 0, ptr %29, align 4, !tbaa !13
  %30 = load ptr, ptr %4, align 8, !tbaa !4
  %31 = getelementptr inbounds nuw %struct.UString, ptr %30, i32 0, i32 1
  store i32 0, ptr %31, align 8, !tbaa !14
  br label %36

32:                                               ; preds = %11
  %33 = load i32, ptr %5, align 4, !tbaa !17
  %34 = load ptr, ptr %4, align 8, !tbaa !4
  %35 = getelementptr inbounds nuw %struct.UString, ptr %34, i32 0, i32 2
  store i32 %33, ptr %35, align 4, !tbaa !13
  br label %36

36:                                               ; preds = %32, %26, %10
  ret void
}

; Function Attrs: nounwind uwtable
define dso_local void @ustr_ucat(ptr noundef %0, i16 noundef zeroext %1, ptr noundef %2) #0 {
  %4 = alloca ptr, align 8
  %5 = alloca i16, align 2
  %6 = alloca ptr, align 8
  store ptr %0, ptr %4, align 8, !tbaa !4
  store i16 %1, ptr %5, align 2, !tbaa !19
  store ptr %2, ptr %6, align 8, !tbaa !18
  %7 = load ptr, ptr %6, align 8, !tbaa !18
  %8 = load i32, ptr %7, align 4, !tbaa !17
  %9 = icmp sgt i32 %8, 0
  br i1 %9, label %10, label %11

10:                                               ; preds = %3
  br label %67

11:                                               ; preds = %3
  %12 = load ptr, ptr %4, align 8, !tbaa !4
  %13 = getelementptr inbounds nuw %struct.UString, ptr %12, i32 0, i32 2
  %14 = load i32, ptr %13, align 4, !tbaa !13
  %15 = load ptr, ptr %4, align 8, !tbaa !4
  %16 = getelementptr inbounds nuw %struct.UString, ptr %15, i32 0, i32 1
  %17 = load i32, ptr %16, align 8, !tbaa !14
  %18 = add nsw i32 %17, 1
  %19 = icmp slt i32 %14, %18
  br i1 %19, label %20, label %44

20:                                               ; preds = %11
  %21 = load ptr, ptr %4, align 8, !tbaa !4
  %22 = load ptr, ptr %4, align 8, !tbaa !4
  %23 = getelementptr inbounds nuw %struct.UString, ptr %22, i32 0, i32 1
  %24 = load i32, ptr %23, align 8, !tbaa !14
  %25 = add nsw i32 %24, 1
  %26 = icmp slt i32 %25, 128
  br i1 %26, label %27, label %28

27:                                               ; preds = %20
  br label %36

28:                                               ; preds = %20
  %29 = load ptr, ptr %4, align 8, !tbaa !4
  %30 = getelementptr inbounds nuw %struct.UString, ptr %29, i32 0, i32 1
  %31 = load i32, ptr %30, align 8, !tbaa !14
  %32 = mul nsw i32 2, %31
  %33 = add nsw i32 %32, 1
  %34 = add nsw i32 %33, 128
  %35 = and i32 %34, -128
  br label %36

36:                                               ; preds = %28, %27
  %37 = phi i32 [ 128, %27 ], [ %35, %28 ]
  %38 = load ptr, ptr %6, align 8, !tbaa !18
  call void @ustr_resize(ptr noundef %21, i32 noundef %37, ptr noundef %38)
  %39 = load ptr, ptr %6, align 8, !tbaa !18
  %40 = load i32, ptr %39, align 4, !tbaa !17
  %41 = icmp sgt i32 %40, 0
  br i1 %41, label %42, label %43

42:                                               ; preds = %36
  br label %67

43:                                               ; preds = %36
  br label %44

44:                                               ; preds = %43, %11
  br label %45

45:                                               ; preds = %44
  %46 = load ptr, ptr %4, align 8, !tbaa !4
  %47 = getelementptr inbounds nuw %struct.UString, ptr %46, i32 0, i32 0
  %48 = load ptr, ptr %47, align 8, !tbaa !9
  %49 = load ptr, ptr %4, align 8, !tbaa !4
  %50 = getelementptr inbounds nuw %struct.UString, ptr %49, i32 0, i32 1
  %51 = load i32, ptr %50, align 8, !tbaa !14
  %52 = sext i32 %51 to i64
  %53 = getelementptr inbounds i16, ptr %48, i64 %52
  call void @llvm.memcpy.p0.p0.i64(ptr align 2 %53, ptr align 2 %5, i64 2, i1 false)
  br label %54

54:                                               ; preds = %45
  %55 = load ptr, ptr %4, align 8, !tbaa !4
  %56 = getelementptr inbounds nuw %struct.UString, ptr %55, i32 0, i32 1
  %57 = load i32, ptr %56, align 8, !tbaa !14
  %58 = add nsw i32 %57, 1
  store i32 %58, ptr %56, align 8, !tbaa !14
  %59 = load ptr, ptr %4, align 8, !tbaa !4
  %60 = getelementptr inbounds nuw %struct.UString, ptr %59, i32 0, i32 0
  %61 = load ptr, ptr %60, align 8, !tbaa !9
  %62 = load ptr, ptr %4, align 8, !tbaa !4
  %63 = getelementptr inbounds nuw %struct.UString, ptr %62, i32 0, i32 1
  %64 = load i32, ptr %63, align 8, !tbaa !14
  %65 = sext i32 %64 to i64
  %66 = getelementptr inbounds i16, ptr %61, i64 %65
  store i16 0, ptr %66, align 2, !tbaa !19
  br label %67

67:                                               ; preds = %54, %42, %10
  ret void
}