; Function Attrs: nounwind uwtable
define dso_local void @ustr_ucat(ptr noundef captures(none) %0, i16 noundef zeroext %1, ptr noundef captures(none) %2) local_unnamed_addr #1 {
  %4 = load i32, ptr %2, align 4, !tbaa !4
  %5 = icmp sgt i32 %4, 0
  br i1 %5, label %35, label %6

6:                                                ; preds = %3
  %7 = getelementptr inbounds nuw i8, ptr %0, i64 12
  %8 = load i32, ptr %7, align 4, !tbaa !13
  %9 = getelementptr inbounds nuw i8, ptr %0, i64 8
  %10 = load i32, ptr %9, align 8, !tbaa !12
  %.not = icmp sgt i32 %8, %10
  %.pre = load ptr, ptr %0, align 8, !tbaa !8
  br i1 %.not, label %25, label %11

11:                                               ; preds = %6
  %12 = icmp slt i32 %10, 127
  %13 = shl nuw nsw i32 %10, 1
  %14 = add nuw nsw i32 %13, 129
  %15 = and i32 %14, 2147483520
  %16 = select i1 %12, i32 128, i32 %15
  %17 = shl nuw i32 %16, 1
  %18 = or disjoint i32 %17, 2
  %19 = zext i32 %18 to i64
  %20 = tail call ptr @uprv_realloc_77(ptr noundef %.pre, i64 noundef %19) #9
  store ptr %20, ptr %0, align 8, !tbaa !8
  %21 = icmp eq ptr %20, null
  br i1 %21, label %22, label %ustr_resize.exit

22:                                               ; preds = %11
  store i32 7, ptr %2, align 4, !tbaa !4
  store i32 0, ptr %9, align 8, !tbaa !12
  br label %ustr_resize.exit

ustr_resize.exit:                                 ; preds = %11, %22
  %.sink = phi i32 [ 0, %22 ], [ %16, %11 ]
  store i32 %.sink, ptr %7, align 4, !tbaa !13
  %23 = load i32, ptr %2, align 4, !tbaa !4
  %24 = icmp sgt i32 %23, 0
  br i1 %24, label %35, label %ustr_resize.exit._crit_edge

ustr_resize.exit._crit_edge:                      ; preds = %ustr_resize.exit
  %.pre13 = load i32, ptr %9, align 8, !tbaa !12
  br label %25

25:                                               ; preds = %ustr_resize.exit._crit_edge, %6
  %26 = phi i32 [ %10, %6 ], [ %.pre13, %ustr_resize.exit._crit_edge ]
  %27 = phi ptr [ %.pre, %6 ], [ %20, %ustr_resize.exit._crit_edge ]
  %28 = sext i32 %26 to i64
  %29 = getelementptr inbounds i16, ptr %27, i64 %28
  store i16 %1, ptr %29, align 2
  %30 = load i32, ptr %9, align 8, !tbaa !12
  %31 = add nsw i32 %30, 1
  store i32 %31, ptr %9, align 8, !tbaa !12
  %32 = load ptr, ptr %0, align 8, !tbaa !8
  %33 = sext i32 %31 to i64
  %34 = getelementptr inbounds i16, ptr %32, i64 %33
  store i16 0, ptr %34, align 2, !tbaa !14
  br label %35

35:                                               ; preds = %ustr_resize.exit, %3, %25
  ret void
}